target datalayout = "e-m:e-p270:32:32-p271:32:32-p272:64:64-i64:64-i128:128-f80:128-n8:16:32:64-S128"
target triple = "x86_64-pc-linux-gnu"

%struct.WOLFSSL = type <{ ptr, ptr, ptr, ptr, [48 x i8], [48 x i8], ptr, ptr, ptr, ptr, ptr, ptr, ptr, ptr, ptr, ptr, ptr, ptr, ptr, i32, [4 x i8], %struct.WOLFSSL_CIPHER, ptr, %struct.Ciphers, %struct.Ciphers, [8 x i8], %struct.Buffers, ptr, ptr, %struct.WOLFSSL_ALERT_HISTORY, %struct.WOLFSSL_ALERT, i32, i32, i32, i32, i32, i32, i32, i16, [2 x i8], i32, i8, %struct.RecordLayerHeader, %struct.MsgsReceived, %struct.ProtocolVersion, %struct.ProtocolVersion, %struct.CipherSpecs, [2 x i8], %struct.Keys, %struct.Options, ptr, i8, i8, i16, [10 x i16], i8, i8, i16, i16, [38 x i8], i32, i32, [4 x i8], ptr, i8, i8, [6 x i8], ptr, ptr, i16, i8, i8, i32, i8, [3 x i8], i32, %struct.OneTimeAuth, ptr }>
%struct.WOLFSSL_CIPHER = type { i8, i8, ptr }
%struct.Ciphers = type { ptr, ptr, ptr, ptr, i8, i8 }
%struct.Buffers = type { %struct.bufferStatic, %struct.bufferStatic, %struct.WOLFSSL_BUFFER_INFO, %struct.WOLFSSL_BUFFER_INFO, %struct.WOLFSSL_BUFFER_INFO, %struct.WOLFSSL_BUFFER_INFO, i32, i32, i8, i8, i8, i8, %struct.WOLFSSL_BUFFER_INFO, %struct.WOLFSSL_BUFFER_INFO, %struct.WOLFSSL_BUFFER_INFO, %struct.WOLFSSL_BUFFER_INFO, ptr, ptr, ptr, i8, i8, i32, i32, ptr, i32, [1 x ptr] }
%struct.bufferStatic = type { [5 x i8], ptr, i32, i32, i32, i8, i8 }
%struct.WOLFSSL_BUFFER_INFO = type { ptr, i32 }
%struct.WOLFSSL_ALERT_HISTORY = type { %struct.WOLFSSL_ALERT, %struct.WOLFSSL_ALERT }
%struct.WOLFSSL_ALERT = type { i32, i32 }
%struct.RecordLayerHeader = type { i8, i8, i8, [2 x i8] }
%struct.MsgsReceived = type { i32 }
%struct.ProtocolVersion = type { i8, i8 }
%struct.CipherSpecs = type { i16, i16, i16, i16, i8, i8, i8, i8, i8, i8, i8, i8 }
%struct.Keys = type { [64 x i8], [64 x i8], [32 x i8], [32 x i8], [16 x i8], [16 x i8], [8 x i8], [12 x i8], [12 x i8], i32, i32, i32, i32, i32, i32, i8, i8, i8, i8 }
%struct.Options = type { i64, i64, i8, i8, i8, i8, i8, i8, i8, i8, i8, i8, i8, i8, i8, i8, i8, i8, i8, i8, i8, i8, i8, i16, i16, i16, i16, i16, i8 }
%struct.OneTimeAuth = type { ptr, i8 }
%struct.TLSX = type { i32, ptr, i32, i8, ptr }
%struct.KeyShareEntry = type { i16, ptr, i32, ptr, i32, ptr, i32, ptr, i32, ptr }

; Function Attrs: nounwind uwtable
define internal i32 @TLSX_KeyShare_New(ptr noundef %0, i32 noundef %1, ptr noundef %2, ptr noundef %3) #0 {
  %5 = alloca i32, align 4
  %6 = alloca ptr, align 8
  %7 = alloca i32, align 4
  %8 = alloca ptr, align 8
  %9 = alloca ptr, align 8
  %10 = alloca ptr, align 8
  %11 = alloca ptr, align 8
  %12 = alloca i32, align 4
  store ptr %0, ptr %6, align 8, !tbaa !190
  store i32 %1, ptr %7, align 4, !tbaa !12
  store ptr %2, ptr %8, align 8, !tbaa !54
  store ptr %3, ptr %9, align 8, !tbaa !190
  call void @llvm.lifetime.start.p0(i64 8, ptr %10) #8
  call void @llvm.lifetime.start.p0(i64 8, ptr %11) #8
  %13 = call ptr @wolfSSL_Malloc(i64 noundef 80)
  store ptr %13, ptr %10, align 8, !tbaa !178
  %14 = load ptr, ptr %10, align 8, !tbaa !178
  %15 = icmp eq ptr %14, null
  br i1 %15, label %16, label %17

16:                                               ; preds = %4
  store i32 -125, ptr %5, align 4
  store i32 1, ptr %12, align 4
  br label %37

17:                                               ; preds = %4
  %18 = load ptr, ptr %10, align 8, !tbaa !178
  call void @llvm.memset.p0.i64(ptr align 8 %18, i8 0, i64 80, i1 false)
  %19 = load i32, ptr %7, align 4, !tbaa !12
  %20 = trunc i32 %19 to i16
  %21 = load ptr, ptr %10, align 8, !tbaa !178
  %22 = getelementptr inbounds nuw %struct.KeyShareEntry, ptr %21, i32 0, i32 0
  store i16 %20, ptr %22, align 8, !tbaa !180
  br label %23

23:                                               ; preds = %27, %17
  %24 = load ptr, ptr %6, align 8, !tbaa !190
  %25 = load ptr, ptr %24, align 8, !tbaa !178
  %26 = icmp ne ptr %25, null
  br i1 %26, label %27, label %32

27:                                               ; preds = %23
  %28 = load ptr, ptr %6, align 8, !tbaa !190
  %29 = load ptr, ptr %28, align 8, !tbaa !178
  %30 = getelementptr inbounds nuw %struct.KeyShareEntry, ptr %29, i32 0, i32 9
  store ptr %30, ptr %11, align 8, !tbaa !190
  %31 = load ptr, ptr %11, align 8, !tbaa !190
  store ptr %31, ptr %6, align 8, !tbaa !190
  br label %23, !llvm.loop !201

32:                                               ; preds = %23
  %33 = load ptr, ptr %10, align 8, !tbaa !178
  %34 = load ptr, ptr %6, align 8, !tbaa !190
  store ptr %33, ptr %34, align 8, !tbaa !178
  %35 = load ptr, ptr %10, align 8, !tbaa !178
  %36 = load ptr, ptr %9, align 8, !tbaa !190
  store ptr %35, ptr %36, align 8, !tbaa !178
  store i32 0, ptr %5, align 4
  store i32 1, ptr %12, align 4
  br label %37

37:                                               ; preds = %32, %16
  call void @llvm.lifetime.end.p0(i64 8, ptr %11) #8
  call void @llvm.lifetime.end.p0(i64 8, ptr %10) #8
  %38 = load i32, ptr %5, align 4
  ret i32 %38
}

; Function Attrs: nounwind uwtable
define ptr @TLSX_Find(ptr noundef %0, i32 noundef %1) #0 {
  %3 = alloca ptr, align 8
  %4 = alloca i32, align 4
  %5 = alloca ptr, align 8
  store ptr %0, ptr %3, align 8, !tbaa !77
  store i32 %1, ptr %4, align 4, !tbaa !12
  call void @llvm.lifetime.start.p0(i64 8, ptr %5) #8
  %6 = load ptr, ptr %3, align 8, !tbaa !77
  store ptr %6, ptr %5, align 8, !tbaa !77
  br label %7

7:                                                ; preds = %18, %2
  %8 = load ptr, ptr %5, align 8, !tbaa !77
  %9 = icmp ne ptr %8, null
  br i1 %9, label %10, label %16

10:                                               ; preds = %7
  %11 = load ptr, ptr %5, align 8, !tbaa !77
  %12 = getelementptr inbounds nuw %struct.TLSX, ptr %11, i32 0, i32 0
  %13 = load i32, ptr %12, align 8, !tbaa !78
  %14 = load i32, ptr %4, align 4, !tbaa !12
  %15 = icmp ne i32 %13, %14
  br label %16

16:                                               ; preds = %10, %7
  %17 = phi i1 [ false, %7 ], [ %15, %10 ]
  br i1 %17, label %18, label %22

18:                                               ; preds = %16
  %19 = load ptr, ptr %5, align 8, !tbaa !77
  %20 = getelementptr inbounds nuw %struct.TLSX, ptr %19, i32 0, i32 4
  %21 = load ptr, ptr %20, align 8, !tbaa !80
  store ptr %21, ptr %5, align 8, !tbaa !77
  br label %7, !llvm.loop !110

22:                                               ; preds = %16
  %23 = load ptr, ptr %5, align 8, !tbaa !77
  call void @llvm.lifetime.end.p0(i64 8, ptr %5) #8
  ret ptr %23
}

; Function Attrs: nounwind uwtable
define i32 @TLSX_KeyShare_Setup(ptr noundef %0, ptr noundef %1) #0 {
  %3 = alloca i32, align 4
  %4 = alloca ptr, align 8
  %5 = alloca ptr, align 8
  %6 = alloca i32, align 4
  %7 = alloca ptr, align 8
  %8 = alloca ptr, align 8
  %9 = alloca ptr, align 8
  %10 = alloca i32, align 4
  store ptr %0, ptr %4, align 8, !tbaa !3
  store ptr %1, ptr %5, align 8, !tbaa !178
  call void @llvm.lifetime.start.p0(i64 4, ptr %6) #8
  call void @llvm.lifetime.start.p0(i64 8, ptr %7) #8
  call void @llvm.lifetime.start.p0(i64 8, ptr %8) #8
  call void @llvm.lifetime.start.p0(i64 8, ptr %9) #8
  store ptr null, ptr %9, align 8, !tbaa !178
  %11 = load ptr, ptr %4, align 8, !tbaa !3
  %12 = icmp eq ptr %11, null
  br i1 %12, label %23, label %13

13:                                               ; preds = %2
  %14 = load ptr, ptr %4, align 8, !tbaa !3
  %15 = getelementptr inbounds nuw %struct.WOLFSSL, ptr %14, i32 0, i32 49
  %16 = getelementptr inbounds nuw %struct.Options, ptr %15, i32 0, i32 1
  %17 = load i64, ptr %16, align 8
  %18 = lshr i64 %17, 4
  %19 = and i64 %18, 3
  %20 = trunc i64 %19 to i16
  %21 = zext i16 %20 to i32
  %22 = icmp ne i32 %21, 0
  br i1 %22, label %23, label %24

23:                                               ; preds = %13, %2
  store i32 -173, ptr %3, align 4
  store i32 1, ptr %10, align 4
  br label %131

24:                                               ; preds = %13
  %25 = load ptr, ptr %4, align 8, !tbaa !3
  %26 = getelementptr inbounds nuw %struct.WOLFSSL, ptr %25, i32 0, i32 77
  %27 = load ptr, ptr %26, align 8, !tbaa !107
  %28 = call ptr @TLSX_Find(ptr noundef %27, i32 noundef 51)
  store ptr %28, ptr %7, align 8, !tbaa !77
  %29 = load ptr, ptr %7, align 8, !tbaa !77
  %30 = icmp eq ptr %29, null
  br i1 %30, label %31, label %32

31:                                               ; preds = %24
  store i32 -192, ptr %3, align 4
  store i32 1, ptr %10, align 4
  br label %131

32:                                               ; preds = %24
  %33 = load ptr, ptr %5, align 8, !tbaa !178
  %34 = icmp eq ptr %33, null
  br i1 %34, label %35, label %36

35:                                               ; preds = %32
  store i32 -173, ptr %3, align 4
  store i32 1, ptr %10, align 4
  br label %131

36:                                               ; preds = %32
  %37 = load ptr, ptr %5, align 8, !tbaa !178
  %38 = getelementptr inbounds nuw %struct.KeyShareEntry, ptr %37, i32 0, i32 0
  %39 = load i16, ptr %38, align 8, !tbaa !180
  %40 = zext i16 %39 to i32
  %41 = load ptr, ptr %4, align 8, !tbaa !3
  %42 = getelementptr inbounds nuw %struct.WOLFSSL, ptr %41, i32 0, i32 12
  %43 = load ptr, ptr %42, align 16, !tbaa !52
  %44 = call i32 @TLSX_KeyShare_New(ptr noundef %9, i32 noundef %40, ptr noundef %43, ptr noundef %8)
  store i32 %44, ptr %6, align 4, !tbaa !12
  %45 = load i32, ptr %6, align 4, !tbaa !12
  %46 = icmp ne i32 %45, 0
  br i1 %46, label %47, label %49

47:                                               ; preds = %36
  %48 = load i32, ptr %6, align 4, !tbaa !12
  store i32 %48, ptr %3, align 4
  store i32 1, ptr %10, align 4
  br label %131

49:                                               ; preds = %36
  %50 = load ptr, ptr %5, align 8, !tbaa !178
  %51 = getelementptr inbounds nuw %struct.KeyShareEntry, ptr %50, i32 0, i32 3
  %52 = load ptr, ptr %51, align 8, !tbaa !182
  %53 = icmp eq ptr %52, null
  br i1 %53, label %54, label %67

54:                                               ; preds = %49
  %55 = load ptr, ptr %4, align 8, !tbaa !3
  %56 = load ptr, ptr %8, align 8, !tbaa !178
  %57 = call i32 @TLSX_KeyShare_GenKey(ptr noundef %55, ptr noundef %56)
  store i32 %57, ptr %6, align 4, !tbaa !12
  %58 = load i32, ptr %6, align 4, !tbaa !12
  %59 = icmp ne i32 %58, 0
  br i1 %59, label %60, label %66

60:                                               ; preds = %54
  %61 = load ptr, ptr %9, align 8, !tbaa !178
  %62 = load ptr, ptr %4, align 8, !tbaa !3
  %63 = getelementptr inbounds nuw %struct.WOLFSSL, ptr %62, i32 0, i32 12
  %64 = load ptr, ptr %63, align 16, !tbaa !52
  call void @TLSX_KeyShare_FreeAll(ptr noundef %61, ptr noundef %64)
  %65 = load i32, ptr %6, align 4, !tbaa !12
  store i32 %65, ptr %3, align 4
  store i32 1, ptr %10, align 4
  br label %131

66:                                               ; preds = %54
  br label %99

67:                                               ; preds = %49
  %68 = load ptr, ptr %5, align 8, !tbaa !178
  %69 = getelementptr inbounds nuw %struct.KeyShareEntry, ptr %68, i32 0, i32 3
  %70 = load ptr, ptr %69, align 8, !tbaa !182
  %71 = load ptr, ptr %8, align 8, !tbaa !178
  %72 = getelementptr inbounds nuw %struct.KeyShareEntry, ptr %71, i32 0, i32 3
  store ptr %70, ptr %72, align 8, !tbaa !182
  %73 = load ptr, ptr %5, align 8, !tbaa !178
  %74 = getelementptr inbounds nuw %struct.KeyShareEntry, ptr %73, i32 0, i32 3
  store ptr null, ptr %74, align 8, !tbaa !182
  %75 = load ptr, ptr %5, align 8, !tbaa !178
  %76 = getelementptr inbounds nuw %struct.KeyShareEntry, ptr %75, i32 0, i32 4
  %77 = load i32, ptr %76, align 8, !tbaa !187
  %78 = load ptr, ptr %8, align 8, !tbaa !178
  %79 = getelementptr inbounds nuw %struct.KeyShareEntry, ptr %78, i32 0, i32 4
  store i32 %77, ptr %79, align 8, !tbaa !187
  %80 = load ptr, ptr %5, align 8, !tbaa !178
  %81 = getelementptr inbounds nuw %struct.KeyShareEntry, ptr %80, i32 0, i32 5
  %82 = load ptr, ptr %81, align 8, !tbaa !184
  %83 = load ptr, ptr %8, align 8, !tbaa !178
  %84 = getelementptr inbounds nuw %struct.KeyShareEntry, ptr %83, i32 0, i32 5
  store ptr %82, ptr %84, align 8, !tbaa !184
  %85 = load ptr, ptr %5, align 8, !tbaa !178
  %86 = getelementptr inbounds nuw %struct.KeyShareEntry, ptr %85, i32 0, i32 5
  store ptr null, ptr %86, align 8, !tbaa !184
  %87 = load ptr, ptr %5, align 8, !tbaa !178
  %88 = getelementptr inbounds nuw %struct.KeyShareEntry, ptr %87, i32 0, i32 6
  %89 = load i32, ptr %88, align 8, !tbaa !186
  %90 = load ptr, ptr %8, align 8, !tbaa !178
  %91 = getelementptr inbounds nuw %struct.KeyShareEntry, ptr %90, i32 0, i32 6
  store i32 %89, ptr %91, align 8, !tbaa !186
  %92 = load ptr, ptr %5, align 8, !tbaa !178
  %93 = getelementptr inbounds nuw %struct.KeyShareEntry, ptr %92, i32 0, i32 7
  %94 = load ptr, ptr %93, align 8, !tbaa !185
  %95 = load ptr, ptr %8, align 8, !tbaa !178
  %96 = getelementptr inbounds nuw %struct.KeyShareEntry, ptr %95, i32 0, i32 7
  store ptr %94, ptr %96, align 8, !tbaa !185
  %97 = load ptr, ptr %5, align 8, !tbaa !178
  %98 = getelementptr inbounds nuw %struct.KeyShareEntry, ptr %97, i32 0, i32 7
  store ptr null, ptr %98, align 8, !tbaa !185
  br label %99

99:                                               ; preds = %67, %66
  %100 = load ptr, ptr %5, align 8, !tbaa !178
  %101 = getelementptr inbounds nuw %struct.KeyShareEntry, ptr %100, i32 0, i32 1
  %102 = load ptr, ptr %101, align 8, !tbaa !199
  %103 = load ptr, ptr %8, align 8, !tbaa !178
  %104 = getelementptr inbounds nuw %struct.KeyShareEntry, ptr %103, i32 0, i32 1
  store ptr %102, ptr %104, align 8, !tbaa !199
  %105 = load ptr, ptr %5, align 8, !tbaa !178
  %106 = getelementptr inbounds nuw %struct.KeyShareEntry, ptr %105, i32 0, i32 2
  %107 = load i32, ptr %106, align 8, !tbaa !200
  %108 = load ptr, ptr %8, align 8, !tbaa !178
  %109 = getelementptr inbounds nuw %struct.KeyShareEntry, ptr %108, i32 0, i32 2
  store i32 %107, ptr %109, align 8, !tbaa !200
  %110 = load ptr, ptr %5, align 8, !tbaa !178
  %111 = getelementptr inbounds nuw %struct.KeyShareEntry, ptr %110, i32 0, i32 1
  store ptr null, ptr %111, align 8, !tbaa !199
  %112 = load ptr, ptr %5, align 8, !tbaa !178
  %113 = getelementptr inbounds nuw %struct.KeyShareEntry, ptr %112, i32 0, i32 2
  store i32 0, ptr %113, align 8, !tbaa !200
  %114 = load ptr, ptr %8, align 8, !tbaa !178
  %115 = getelementptr inbounds nuw %struct.KeyShareEntry, ptr %114, i32 0, i32 0
  %116 = load i16, ptr %115, align 8, !tbaa !180
  %117 = load ptr, ptr %4, align 8, !tbaa !3
  %118 = getelementptr inbounds nuw %struct.WOLFSSL, ptr %117, i32 0, i32 53
  store i16 %116, ptr %118, align 2, !tbaa !152
  %119 = load ptr, ptr %7, align 8, !tbaa !77
  %120 = getelementptr inbounds nuw %struct.TLSX, ptr %119, i32 0, i32 1
  %121 = load ptr, ptr %120, align 8, !tbaa !103
  %122 = load ptr, ptr %4, align 8, !tbaa !3
  %123 = getelementptr inbounds nuw %struct.WOLFSSL, ptr %122, i32 0, i32 12
  %124 = load ptr, ptr %123, align 16, !tbaa !52
  call void @TLSX_KeyShare_FreeAll(ptr noundef %121, ptr noundef %124)
  %125 = load ptr, ptr %8, align 8, !tbaa !178
  %126 = load ptr, ptr %7, align 8, !tbaa !77
  %127 = getelementptr inbounds nuw %struct.TLSX, ptr %126, i32 0, i32 1
  store ptr %125, ptr %127, align 8, !tbaa !103
  %128 = load ptr, ptr %7, align 8, !tbaa !77
  %129 = getelementptr inbounds nuw %struct.TLSX, ptr %128, i32 0, i32 3
  store i8 1, ptr %129, align 4, !tbaa !104
  %130 = load i32, ptr %6, align 4, !tbaa !12
  store i32 %130, ptr %3, align 4
  store i32 1, ptr %10, align 4
  br label %131

131:                                              ; preds = %99, %60, %47, %35, %31, %23
  call void @llvm.lifetime.end.p0(i64 8, ptr %9) #8
  call void @llvm.lifetime.end.p0(i64 8, ptr %8) #8
  call void @llvm.lifetime.end.p0(i64 8, ptr %7) #8
  call void @llvm.lifetime.end.p0(i64 4, ptr %6) #8
  %132 = load i32, ptr %3, align 4
  ret i32 %132
}