; Function Attrs: nounwind uwtable
define i32 @TLSX_KeyShare_Setup(ptr noundef %0, ptr noundef captures(address_is_null) %1) local_unnamed_addr #0 {
  %3 = alloca ptr, align 8
  call void @llvm.lifetime.start.p0(i64 8, ptr nonnull %3)
  store ptr null, ptr %3, align 8, !tbaa !157
  %4 = icmp eq ptr %0, null
  br i1 %4, label %TLSX_KeyShare_New.exit, label %5

5:                                                ; preds = %2
  %6 = getelementptr inbounds nuw i8, ptr %0, i64 1024
  %7 = load i64, ptr %6, align 8
  %8 = and i64 %7, 48
  %.not = icmp eq i64 %8, 0
  br i1 %.not, label %9, label %TLSX_KeyShare_New.exit

9:                                                ; preds = %5
  %10 = getelementptr inbounds nuw i8, ptr %0, i64 1224
  %11 = load ptr, ptr %10, align 8, !tbaa !100
  %.not6.i = icmp eq ptr %11, null
  br i1 %.not6.i, label %TLSX_KeyShare_New.exit, label %.lr.ph.i

.lr.ph.i:                                         ; preds = %9, %13
  %.07.i = phi ptr [ %15, %13 ], [ %11, %9 ]
  %12 = load i32, ptr %.07.i, align 8, !tbaa !60
  %.not5.i = icmp eq i32 %12, 51
  br i1 %.not5.i, label %TLSX_Find.exit, label %13

13:                                               ; preds = %.lr.ph.i
  %14 = getelementptr inbounds nuw i8, ptr %.07.i, i64 24
  %15 = load ptr, ptr %14, align 8, !tbaa !63
  %.not.i = icmp eq ptr %15, null
  br i1 %.not.i, label %TLSX_KeyShare_New.exit, label %.lr.ph.i, !llvm.loop !101

TLSX_Find.exit:                                   ; preds = %.lr.ph.i
  %16 = icmp eq ptr %1, null
  br i1 %16, label %TLSX_KeyShare_New.exit, label %17

17:                                               ; preds = %TLSX_Find.exit
  %18 = load i16, ptr %1, align 8, !tbaa !148
  %19 = tail call ptr @wolfSSL_Malloc(i64 noundef 80) #17
  %20 = icmp eq ptr %19, null
  br i1 %20, label %TLSX_KeyShare_New.exit, label %21

21:                                               ; preds = %17
  tail call void @llvm.memset.p0.i64(ptr noundef nonnull align 8 dereferenceable(80) %19, i8 0, i64 80, i1 false)
  store i16 %18, ptr %19, align 8, !tbaa !148
  br label %22

22:                                               ; preds = %22, %21
  %.011.i = phi ptr [ %3, %21 ], [ %24, %22 ]
  %23 = load ptr, ptr %.011.i, align 8, !tbaa !157
  %.not.i42 = icmp eq ptr %23, null
  %24 = getelementptr inbounds nuw i8, ptr %23, i64 72
  br i1 %.not.i42, label %25, label %22, !llvm.loop !175

25:                                               ; preds = %22
  store ptr %19, ptr %.011.i, align 8, !tbaa !157
  %26 = getelementptr inbounds nuw i8, ptr %1, i64 24
  %27 = load ptr, ptr %26, align 8, !tbaa !151
  %28 = icmp eq ptr %27, null
  br i1 %28, label %29, label %32

29:                                               ; preds = %25
  %30 = tail call i32 @TLSX_KeyShare_GenKey(ptr noundef nonnull %0, ptr noundef nonnull %19)
  %.not41 = icmp eq i32 %30, 0
  br i1 %.not41, label %._crit_edge, label %31

._crit_edge:                                      ; preds = %29
  %.pre = load i16, ptr %19, align 8, !tbaa !148
  br label %46

31:                                               ; preds = %29
  %.0..0..0. = load ptr, ptr %3, align 8, !tbaa !157
  tail call fastcc void @TLSX_KeyShare_FreeAll(ptr noundef %.0..0..0.)
  br label %TLSX_KeyShare_New.exit

32:                                               ; preds = %25
  %33 = getelementptr inbounds nuw i8, ptr %19, i64 24
  store ptr %27, ptr %33, align 8, !tbaa !151
  store ptr null, ptr %26, align 8, !tbaa !151
  %34 = getelementptr inbounds nuw i8, ptr %1, i64 32
  %35 = load i32, ptr %34, align 8, !tbaa !155
  %36 = getelementptr inbounds nuw i8, ptr %19, i64 32
  store i32 %35, ptr %36, align 8, !tbaa !155
  %37 = getelementptr inbounds nuw i8, ptr %1, i64 40
  %38 = load ptr, ptr %37, align 8, !tbaa !152
  %39 = getelementptr inbounds nuw i8, ptr %19, i64 40
  store ptr %38, ptr %39, align 8, !tbaa !152
  store ptr null, ptr %37, align 8, !tbaa !152
  %40 = getelementptr inbounds nuw i8, ptr %1, i64 48
  %41 = load i32, ptr %40, align 8, !tbaa !154
  %42 = getelementptr inbounds nuw i8, ptr %19, i64 48
  store i32 %41, ptr %42, align 8, !tbaa !154
  %43 = getelementptr inbounds nuw i8, ptr %1, i64 56
  %44 = load ptr, ptr %43, align 8, !tbaa !153
  %45 = getelementptr inbounds nuw i8, ptr %19, i64 56
  store ptr %44, ptr %45, align 8, !tbaa !153
  store ptr null, ptr %43, align 8, !tbaa !153
  br label %46

46:                                               ; preds = %._crit_edge, %32
  %47 = phi i16 [ %.pre, %._crit_edge ], [ %18, %32 ]
  %48 = getelementptr inbounds nuw i8, ptr %1, i64 8
  %49 = load ptr, ptr %48, align 8, !tbaa !164
  %50 = getelementptr inbounds nuw i8, ptr %19, i64 8
  store ptr %49, ptr %50, align 8, !tbaa !164
  %51 = getelementptr inbounds nuw i8, ptr %1, i64 16
  %52 = load i32, ptr %51, align 8, !tbaa !165
  %53 = getelementptr inbounds nuw i8, ptr %19, i64 16
  store i32 %52, ptr %53, align 8, !tbaa !165
  store ptr null, ptr %48, align 8, !tbaa !164
  store i32 0, ptr %51, align 8, !tbaa !165
  %54 = getelementptr inbounds nuw i8, ptr %0, i64 1082
  store i16 %47, ptr %54, align 2, !tbaa !132
  %55 = getelementptr inbounds nuw i8, ptr %.07.i, i64 8
  %56 = load ptr, ptr %55, align 8, !tbaa !82
  tail call fastcc void @TLSX_KeyShare_FreeAll(ptr noundef %56)
  store ptr %19, ptr %55, align 8, !tbaa !82
  %57 = getelementptr inbounds nuw i8, ptr %.07.i, i64 20
  store i8 1, ptr %57, align 4, !tbaa !83
  br label %TLSX_KeyShare_New.exit

TLSX_KeyShare_New.exit:                           ; preds = %13, %9, %17, %TLSX_Find.exit, %2, %5, %46, %31
  %.0 = phi i32 [ %30, %31 ], [ 0, %46 ], [ -173, %5 ], [ -173, %2 ], [ -173, %TLSX_Find.exit ], [ -125, %17 ], [ -192, %9 ], [ -192, %13 ]
  call void @llvm.lifetime.end.p0(i64 8, ptr nonnull %3)
  ret i32 %.0
}